target datalayout = "e-m:e-p270:32:32-p271:32:32-p272:64:64-i64:64-i128:128-f80:128-n8:16:32:64-S128"
target triple = "x86_64-pc-linux-gnu"

@sMaxW = internal global i32 0, align 4
@sMaxH = internal global i32 0, align 4

; Function Attrs: nounwind uwtable
define void @exr_get_default_maximum_image_size(ptr noundef %0, ptr noundef %1) #0 {
  %3 = alloca ptr, align 8
  %4 = alloca ptr, align 8
  store ptr %0, ptr %3, align 8, !tbaa !3
  store ptr %1, ptr %4, align 8, !tbaa !3
  %5 = load ptr, ptr %3, align 8, !tbaa !3
  %6 = icmp ne ptr %5, null
  br i1 %6, label %7, label %10

7:                                                ; preds = %2
  %8 = load i32, ptr @sMaxW, align 4, !tbaa !11
  %9 = load ptr, ptr %3, align 8, !tbaa !3
  store i32 %8, ptr %9, align 4, !tbaa !11
  br label %10

10:                                               ; preds = %7, %2
  %11 = load ptr, ptr %4, align 8, !tbaa !3
  %12 = icmp ne ptr %11, null
  br i1 %12, label %13, label %16

13:                                               ; preds = %10
  %14 = load i32, ptr @sMaxH, align 4, !tbaa !11
  %15 = load ptr, ptr %4, align 8, !tbaa !3
  store i32 %14, ptr %15, align 4, !tbaa !11
  br label %16

16:                                               ; preds = %13, %10
  ret void
}