; Function Attrs: mustprogress nofree norecurse nosync nounwind willreturn memory(read, argmem: write, inaccessiblemem: none) uwtable
define void @exr_get_default_maximum_image_size(ptr noundef writeonly %0, ptr noundef writeonly %1) local_unnamed_addr #3 {
  %.not = icmp eq ptr %0, null
  br i1 %.not, label %5, label %3

3:                                                ; preds = %2
  %4 = load i32, ptr @sMaxW, align 4, !tbaa !3
  store i32 %4, ptr %0, align 4, !tbaa !3
  br label %5

5:                                                ; preds = %3, %2
  %.not5 = icmp eq ptr %1, null
  br i1 %.not5, label %8, label %6

6:                                                ; preds = %5
  %7 = load i32, ptr @sMaxH, align 4, !tbaa !3
  store i32 %7, ptr %1, align 4, !tbaa !3
  br label %8

8:                                                ; preds = %6, %5
  ret void
}